
BootloaderHID.elf:     file format elf32-avr

Sections:
Idx Name          Size      VMA       LMA       File off  Algn
  0 .data         0000004a  00800100  00008386  0000081a  2**0
                  CONTENTS, ALLOC, LOAD, DATA
  1 .text         00000786  00007c00  00007c00  00000094  2**1
                  CONTENTS, ALLOC, LOAD, READONLY, CODE
  2 .bss          0000000a  0080014a  0080014a  00000864  2**0
                  ALLOC
  3 .noinit       00000002  00800154  00800154  00000864  2**0
                  ALLOC
  4 .comment      00000011  00000000  00000000  00000864  2**0
                  CONTENTS, READONLY
  5 .note.gnu.avr.deviceinfo 00000040  00000000  00000000  00000878  2**2
                  CONTENTS, READONLY
  6 .debug_info   000009f4  00000000  00000000  000008b8  2**0
                  CONTENTS, READONLY, DEBUGGING
  7 .debug_abbrev 0000096a  00000000  00000000  000012ac  2**0
                  CONTENTS, READONLY, DEBUGGING
  8 .debug_line   0000001d  00000000  00000000  00001c16  2**0
                  CONTENTS, READONLY, DEBUGGING
  9 .debug_str    00000374  00000000  00000000  00001c33  2**0
                  CONTENTS, READONLY, DEBUGGING

Disassembly of section .text:

00007c00 <__vectors>:
    7c00:	55 c0       	rjmp	.+170    	; 0x7cac <__ctors_end>
    7c02:	00 00       	nop
    7c04:	7f c0       	rjmp	.+254    	; 0x7d04 <__bad_interrupt>
    7c06:	00 00       	nop
    7c08:	7d c0       	rjmp	.+250    	; 0x7d04 <__bad_interrupt>
    7c0a:	00 00       	nop
    7c0c:	7b c0       	rjmp	.+246    	; 0x7d04 <__bad_interrupt>
    7c0e:	00 00       	nop
    7c10:	79 c0       	rjmp	.+242    	; 0x7d04 <__bad_interrupt>
    7c12:	00 00       	nop
    7c14:	77 c0       	rjmp	.+238    	; 0x7d04 <__bad_interrupt>
    7c16:	00 00       	nop
    7c18:	75 c0       	rjmp	.+234    	; 0x7d04 <__bad_interrupt>
    7c1a:	00 00       	nop
    7c1c:	73 c0       	rjmp	.+230    	; 0x7d04 <__bad_interrupt>
    7c1e:	00 00       	nop
    7c20:	71 c0       	rjmp	.+226    	; 0x7d04 <__bad_interrupt>
    7c22:	00 00       	nop
    7c24:	6f c0       	rjmp	.+222    	; 0x7d04 <__bad_interrupt>
    7c26:	00 00       	nop
    7c28:	9f c0       	rjmp	.+318    	; 0x7d68 <__vector_10>
    7c2a:	00 00       	nop
    7c2c:	6b c0       	rjmp	.+214    	; 0x7d04 <__bad_interrupt>
    7c2e:	00 00       	nop
    7c30:	69 c0       	rjmp	.+210    	; 0x7d04 <__bad_interrupt>
    7c32:	00 00       	nop
    7c34:	67 c0       	rjmp	.+206    	; 0x7d04 <__bad_interrupt>
    7c36:	00 00       	nop
    7c38:	65 c0       	rjmp	.+202    	; 0x7d04 <__bad_interrupt>
    7c3a:	00 00       	nop
    7c3c:	63 c0       	rjmp	.+198    	; 0x7d04 <__bad_interrupt>
    7c3e:	00 00       	nop
    7c40:	61 c0       	rjmp	.+194    	; 0x7d04 <__bad_interrupt>
    7c42:	00 00       	nop
    7c44:	5f c0       	rjmp	.+190    	; 0x7d04 <__bad_interrupt>
    7c46:	00 00       	nop
    7c48:	5d c0       	rjmp	.+186    	; 0x7d04 <__bad_interrupt>
    7c4a:	00 00       	nop
    7c4c:	5b c0       	rjmp	.+182    	; 0x7d04 <__bad_interrupt>
    7c4e:	00 00       	nop
    7c50:	59 c0       	rjmp	.+178    	; 0x7d04 <__bad_interrupt>
    7c52:	00 00       	nop
    7c54:	57 c0       	rjmp	.+174    	; 0x7d04 <__bad_interrupt>
    7c56:	00 00       	nop
    7c58:	55 c0       	rjmp	.+170    	; 0x7d04 <__bad_interrupt>
    7c5a:	00 00       	nop
    7c5c:	53 c0       	rjmp	.+166    	; 0x7d04 <__bad_interrupt>
    7c5e:	00 00       	nop
    7c60:	51 c0       	rjmp	.+162    	; 0x7d04 <__bad_interrupt>
    7c62:	00 00       	nop
    7c64:	4f c0       	rjmp	.+158    	; 0x7d04 <__bad_interrupt>
    7c66:	00 00       	nop
    7c68:	4d c0       	rjmp	.+154    	; 0x7d04 <__bad_interrupt>
    7c6a:	00 00       	nop
    7c6c:	4b c0       	rjmp	.+150    	; 0x7d04 <__bad_interrupt>
    7c6e:	00 00       	nop
    7c70:	49 c0       	rjmp	.+146    	; 0x7d04 <__bad_interrupt>
    7c72:	00 00       	nop
    7c74:	47 c0       	rjmp	.+142    	; 0x7d04 <__bad_interrupt>
    7c76:	00 00       	nop
    7c78:	45 c0       	rjmp	.+138    	; 0x7d04 <__bad_interrupt>
    7c7a:	00 00       	nop
    7c7c:	43 c0       	rjmp	.+134    	; 0x7d04 <__bad_interrupt>
    7c7e:	00 00       	nop
    7c80:	41 c0       	rjmp	.+130    	; 0x7d04 <__bad_interrupt>
    7c82:	00 00       	nop
    7c84:	3f c0       	rjmp	.+126    	; 0x7d04 <__bad_interrupt>
    7c86:	00 00       	nop
    7c88:	3d c0       	rjmp	.+122    	; 0x7d04 <__bad_interrupt>
    7c8a:	00 00       	nop
    7c8c:	3b c0       	rjmp	.+118    	; 0x7d04 <__bad_interrupt>
    7c8e:	00 00       	nop
    7c90:	39 c0       	rjmp	.+114    	; 0x7d04 <__bad_interrupt>
    7c92:	00 00       	nop
    7c94:	37 c0       	rjmp	.+110    	; 0x7d04 <__bad_interrupt>
    7c96:	00 00       	nop
    7c98:	35 c0       	rjmp	.+106    	; 0x7d04 <__bad_interrupt>
    7c9a:	00 00       	nop
    7c9c:	33 c0       	rjmp	.+102    	; 0x7d04 <__bad_interrupt>
    7c9e:	00 00       	nop
    7ca0:	31 c0       	rjmp	.+98     	; 0x7d04 <__bad_interrupt>
    7ca2:	00 00       	nop
    7ca4:	2f c0       	rjmp	.+94     	; 0x7d04 <__bad_interrupt>
    7ca6:	00 00       	nop
    7ca8:	2d c0       	rjmp	.+90     	; 0x7d04 <__bad_interrupt>
    7caa:	00 00       	nop

00007cac <__ctors_end>:
    7cac:	11 24       	eor	r1, r1
    7cae:	1f be       	out	0x3f, r1	; 63
    7cb0:	cf ef       	ldi	r28, 0xFF	; 255
    7cb2:	da e0       	ldi	r29, 0x0A	; 10
    7cb4:	de bf       	out	0x3e, r29	; 62
    7cb6:	cd bf       	out	0x3d, r28	; 61

00007cb8 <Application_Jump_Check>:
    7cb8:	04 b6       	in	r0, 0x34	; 52
    7cba:	03 fe       	sbrs	r0, 3
    7cbc:	0e c0       	rjmp	.+28     	; 0x7cda <__do_copy_data>
    7cbe:	80 91 54 01 	lds	r24, 0x0154
    7cc2:	90 91 55 01 	lds	r25, 0x0155
    7cc6:	82 34       	cpi	r24, 0x42	; 66
    7cc8:	9c 4d       	sbci	r25, 0xDC	; 220
    7cca:	39 f4       	brne	.+14     	; 0x7cda <__do_copy_data>
    7ccc:	10 92 55 01 	sts	0x0155, r1
    7cd0:	10 92 54 01 	sts	0x0154, r1
    7cd4:	e0 e0       	ldi	r30, 0x00	; 0
    7cd6:	f0 e0       	ldi	r31, 0x00	; 0
    7cd8:	09 95       	icall

00007cda <__do_copy_data>:
    7cda:	11 e0       	ldi	r17, 0x01	; 1
    7cdc:	a0 e0       	ldi	r26, 0x00	; 0
    7cde:	b1 e0       	ldi	r27, 0x01	; 1
    7ce0:	e6 e8       	ldi	r30, 0x86	; 134
    7ce2:	f3 e8       	ldi	r31, 0x83	; 131
    7ce4:	02 c0       	rjmp	.+4      	; 0x7cea <__do_copy_data+0x10>
    7ce6:	05 90       	lpm	r0, Z+
    7ce8:	0d 92       	st	X+, r0
    7cea:	aa 34       	cpi	r26, 0x4A	; 74
    7cec:	b1 07       	cpc	r27, r17
    7cee:	d9 f7       	brne	.-10     	; 0x7ce6 <__do_copy_data+0xc>

00007cf0 <__do_clear_bss>:
    7cf0:	21 e0       	ldi	r18, 0x01	; 1
    7cf2:	aa e4       	ldi	r26, 0x4A	; 74
    7cf4:	b1 e0       	ldi	r27, 0x01	; 1
    7cf6:	01 c0       	rjmp	.+2      	; 0x7cfa <.do_clear_bss_start>

00007cf8 <.do_clear_bss_loop>:
    7cf8:	1d 92       	st	X+, r1

00007cfa <.do_clear_bss_start>:
    7cfa:	a4 35       	cpi	r26, 0x54	; 84
    7cfc:	b2 07       	cpc	r27, r18
    7cfe:	e1 f7       	brne	.-8      	; 0x7cf8 <.do_clear_bss_loop>
    7d00:	e1 d0       	rcall	.+450    	; 0x7ec4 <main>
    7d02:	3f c3       	rjmp	.+1662   	; 0x8382 <_exit>

00007d04 <__bad_interrupt>:
    7d04:	7d cf       	rjmp	.-262    	; 0x7c00 <__vectors>

00007d06 <Endpoint_ClearStatusStage>:
    7d06:	80 91 4b 01 	lds	r24, 0x014B
    7d0a:	87 ff       	sbrs	r24, 7
    7d0c:	0f c0       	rjmp	.+30     	; 0x7d2c <Endpoint_ClearStatusStage+0x26>
    7d0e:	80 91 e8 00 	lds	r24, 0x00E8
    7d12:	82 fd       	sbrc	r24, 2
    7d14:	04 c0       	rjmp	.+8      	; 0x7d1e <Endpoint_ClearStatusStage+0x18>
    7d16:	8e b3       	in	r24, 0x1e	; 30
    7d18:	81 11       	cpse	r24, r1
    7d1a:	f9 cf       	rjmp	.-14     	; 0x7d0e <Endpoint_ClearStatusStage+0x8>
    7d1c:	10 c0       	rjmp	.+32     	; 0x7d3e <Endpoint_ClearStatusStage+0x38>
    7d1e:	80 91 e8 00 	lds	r24, 0x00E8
    7d22:	8b 77       	andi	r24, 0x7B	; 123
    7d24:	0a c0       	rjmp	.+20     	; 0x7d3a <Endpoint_ClearStatusStage+0x34>
    7d26:	8e b3       	in	r24, 0x1e	; 30
    7d28:	88 23       	and	r24, r24
    7d2a:	49 f0       	breq	.+18     	; 0x7d3e <Endpoint_ClearStatusStage+0x38>
    7d2c:	80 91 e8 00 	lds	r24, 0x00E8
    7d30:	80 ff       	sbrs	r24, 0
    7d32:	f9 cf       	rjmp	.-14     	; 0x7d26 <Endpoint_ClearStatusStage+0x20>
    7d34:	80 91 e8 00 	lds	r24, 0x00E8
    7d38:	8e 77       	andi	r24, 0x7E	; 126
    7d3a:	80 93 e8 00 	sts	0x00E8, r24
    7d3e:	08 95       	ret

00007d40 <Endpoint_ConfigureEndpoint_Prv>:
    7d40:	8f 70       	andi	r24, 0x0F	; 15
    7d42:	80 93 e9 00 	sts	0x00E9, r24
    7d46:	eb ee       	ldi	r30, 0xEB	; 235
    7d48:	f0 e0       	ldi	r31, 0x00	; 0
    7d4a:	80 81       	ld	r24, Z
    7d4c:	81 60       	ori	r24, 0x01	; 1
    7d4e:	80 83       	st	Z, r24
    7d50:	ed ee       	ldi	r30, 0xED	; 237
    7d52:	f0 e0       	ldi	r31, 0x00	; 0
    7d54:	10 82       	st	Z, r1
    7d56:	60 93 ec 00 	sts	0x00EC, r22
    7d5a:	40 83       	st	Z, r20
    7d5c:	80 91 ee 00 	lds	r24, 0x00EE
    7d60:	88 1f       	adc	r24, r24
    7d62:	88 27       	eor	r24, r24
    7d64:	88 1f       	adc	r24, r24
    7d66:	08 95       	ret

00007d68 <__vector_10>:
    7d68:	1f 92       	push	r1
    7d6a:	0f 92       	push	r0
    7d6c:	0f b6       	in	r0, 0x3f	; 63
    7d6e:	0f 92       	push	r0
    7d70:	11 24       	eor	r1, r1
    7d72:	2f 93       	push	r18
    7d74:	3f 93       	push	r19
    7d76:	4f 93       	push	r20
    7d78:	5f 93       	push	r21
    7d7a:	6f 93       	push	r22
    7d7c:	7f 93       	push	r23
    7d7e:	8f 93       	push	r24
    7d80:	9f 93       	push	r25
    7d82:	af 93       	push	r26
    7d84:	bf 93       	push	r27
    7d86:	ef 93       	push	r30
    7d88:	ff 93       	push	r31
    7d8a:	80 91 da 00 	lds	r24, 0x00DA
    7d8e:	80 ff       	sbrs	r24, 0
    7d90:	19 c0       	rjmp	.+50     	; 0x7dc4 <__vector_10+0x5c>
    7d92:	80 91 d8 00 	lds	r24, 0x00D8
    7d96:	80 ff       	sbrs	r24, 0
    7d98:	15 c0       	rjmp	.+42     	; 0x7dc4 <__vector_10+0x5c>
    7d9a:	80 91 da 00 	lds	r24, 0x00DA
    7d9e:	8e 7f       	andi	r24, 0xFE	; 254
    7da0:	80 93 da 00 	sts	0x00DA, r24
    7da4:	80 91 d9 00 	lds	r24, 0x00D9
    7da8:	80 ff       	sbrs	r24, 0
    7daa:	0a c0       	rjmp	.+20     	; 0x7dc0 <__vector_10+0x58>
    7dac:	80 e1       	ldi	r24, 0x10	; 16
    7dae:	89 bd       	out	0x29, r24	; 41
    7db0:	82 e1       	ldi	r24, 0x12	; 18
    7db2:	89 bd       	out	0x29, r24	; 41
    7db4:	09 b4       	in	r0, 0x29	; 41
    7db6:	00 fe       	sbrs	r0, 0
    7db8:	fd cf       	rjmp	.-6      	; 0x7db4 <__vector_10+0x4c>
    7dba:	81 e0       	ldi	r24, 0x01	; 1
    7dbc:	8e bb       	out	0x1e, r24	; 30
    7dbe:	02 c0       	rjmp	.+4      	; 0x7dc4 <__vector_10+0x5c>
    7dc0:	19 bc       	out	0x29, r1	; 41
    7dc2:	1e ba       	out	0x1e, r1	; 30
    7dc4:	80 91 e1 00 	lds	r24, 0x00E1
    7dc8:	80 ff       	sbrs	r24, 0
    7dca:	16 c0       	rjmp	.+44     	; 0x7df8 <__vector_10+0x90>
    7dcc:	80 91 e2 00 	lds	r24, 0x00E2
    7dd0:	80 ff       	sbrs	r24, 0
    7dd2:	12 c0       	rjmp	.+36     	; 0x7df8 <__vector_10+0x90>
    7dd4:	80 91 e2 00 	lds	r24, 0x00E2
    7dd8:	8e 7f       	andi	r24, 0xFE	; 254
    7dda:	80 93 e2 00 	sts	0x00E2, r24
    7dde:	80 91 e2 00 	lds	r24, 0x00E2
    7de2:	80 61       	ori	r24, 0x10	; 16
    7de4:	80 93 e2 00 	sts	0x00E2, r24
    7de8:	80 91 d8 00 	lds	r24, 0x00D8
    7dec:	80 62       	ori	r24, 0x20	; 32
    7dee:	80 93 d8 00 	sts	0x00D8, r24
    7df2:	19 bc       	out	0x29, r1	; 41
    7df4:	85 e0       	ldi	r24, 0x05	; 5
    7df6:	8e bb       	out	0x1e, r24	; 30
    7df8:	80 91 e1 00 	lds	r24, 0x00E1
    7dfc:	84 ff       	sbrs	r24, 4
    7dfe:	2d c0       	rjmp	.+90     	; 0x7e5a <__vector_10+0xf2>
    7e00:	80 91 e2 00 	lds	r24, 0x00E2
    7e04:	84 ff       	sbrs	r24, 4
    7e06:	29 c0       	rjmp	.+82     	; 0x7e5a <__vector_10+0xf2>
    7e08:	80 e1       	ldi	r24, 0x10	; 16
    7e0a:	89 bd       	out	0x29, r24	; 41
    7e0c:	82 e1       	ldi	r24, 0x12	; 18
    7e0e:	89 bd       	out	0x29, r24	; 41
    7e10:	09 b4       	in	r0, 0x29	; 41
    7e12:	00 fe       	sbrs	r0, 0
    7e14:	fd cf       	rjmp	.-6      	; 0x7e10 <__vector_10+0xa8>
    7e16:	80 91 d8 00 	lds	r24, 0x00D8
    7e1a:	8f 7d       	andi	r24, 0xDF	; 223
    7e1c:	80 93 d8 00 	sts	0x00D8, r24
    7e20:	80 91 e1 00 	lds	r24, 0x00E1
    7e24:	8f 7e       	andi	r24, 0xEF	; 239
    7e26:	80 93 e1 00 	sts	0x00E1, r24
    7e2a:	80 91 e2 00 	lds	r24, 0x00E2
    7e2e:	8f 7e       	andi	r24, 0xEF	; 239
    7e30:	80 93 e2 00 	sts	0x00E2, r24
    7e34:	80 91 e2 00 	lds	r24, 0x00E2
    7e38:	81 60       	ori	r24, 0x01	; 1
    7e3a:	80 93 e2 00 	sts	0x00E2, r24
    7e3e:	80 91 53 01 	lds	r24, 0x0153
    7e42:	88 23       	and	r24, r24
    7e44:	11 f0       	breq	.+4      	; 0x7e4a <__vector_10+0xe2>
    7e46:	84 e0       	ldi	r24, 0x04	; 4
    7e48:	07 c0       	rjmp	.+14     	; 0x7e58 <__vector_10+0xf0>
    7e4a:	80 91 e3 00 	lds	r24, 0x00E3
    7e4e:	87 fd       	sbrc	r24, 7
    7e50:	02 c0       	rjmp	.+4      	; 0x7e56 <__vector_10+0xee>
    7e52:	81 e0       	ldi	r24, 0x01	; 1
    7e54:	01 c0       	rjmp	.+2      	; 0x7e58 <__vector_10+0xf0>
    7e56:	83 e0       	ldi	r24, 0x03	; 3
    7e58:	8e bb       	out	0x1e, r24	; 30
    7e5a:	80 91 e1 00 	lds	r24, 0x00E1
    7e5e:	83 ff       	sbrs	r24, 3
    7e60:	20 c0       	rjmp	.+64     	; 0x7ea2 <__vector_10+0x13a>
    7e62:	80 91 e2 00 	lds	r24, 0x00E2
    7e66:	83 ff       	sbrs	r24, 3
    7e68:	1c c0       	rjmp	.+56     	; 0x7ea2 <__vector_10+0x13a>
    7e6a:	80 91 e1 00 	lds	r24, 0x00E1
    7e6e:	87 7f       	andi	r24, 0xF7	; 247
    7e70:	80 93 e1 00 	sts	0x00E1, r24
    7e74:	82 e0       	ldi	r24, 0x02	; 2
    7e76:	8e bb       	out	0x1e, r24	; 30
    7e78:	10 92 53 01 	sts	0x0153, r1
    7e7c:	80 91 e1 00 	lds	r24, 0x00E1
    7e80:	8e 7f       	andi	r24, 0xFE	; 254
    7e82:	80 93 e1 00 	sts	0x00E1, r24
    7e86:	80 91 e2 00 	lds	r24, 0x00E2
    7e8a:	8e 7f       	andi	r24, 0xFE	; 254
    7e8c:	80 93 e2 00 	sts	0x00E2, r24
    7e90:	80 91 e2 00 	lds	r24, 0x00E2
    7e94:	80 61       	ori	r24, 0x10	; 16
    7e96:	80 93 e2 00 	sts	0x00E2, r24
    7e9a:	42 e0       	ldi	r20, 0x02	; 2
    7e9c:	60 e0       	ldi	r22, 0x00	; 0
    7e9e:	80 e0       	ldi	r24, 0x00	; 0
    7ea0:	4f df       	rcall	.-354    	; 0x7d40 <Endpoint_ConfigureEndpoint_Prv>
    7ea2:	ff 91       	pop	r31
    7ea4:	ef 91       	pop	r30
    7ea6:	bf 91       	pop	r27
    7ea8:	af 91       	pop	r26
    7eaa:	9f 91       	pop	r25
    7eac:	8f 91       	pop	r24
    7eae:	7f 91       	pop	r23
    7eb0:	6f 91       	pop	r22
    7eb2:	5f 91       	pop	r21
    7eb4:	4f 91       	pop	r20
    7eb6:	3f 91       	pop	r19
    7eb8:	2f 91       	pop	r18
    7eba:	0f 90       	pop	r0
    7ebc:	0f be       	out	0x3f, r0	; 63
    7ebe:	0f 90       	pop	r0
    7ec0:	1f 90       	pop	r1
    7ec2:	18 95       	reti

00007ec4 <main>:
    7ec4:	84 b7       	in	r24, 0x34	; 52
    7ec6:	87 7f       	andi	r24, 0xF7	; 247
    7ec8:	84 bf       	out	0x34, r24	; 52
    7eca:	0f b6       	in	r0, 0x3f	; 63
    7ecc:	f8 94       	cli
    7ece:	a8 95       	wdr
    7ed0:	80 91 60 00 	lds	r24, 0x0060
    7ed4:	88 61       	ori	r24, 0x18	; 24
    7ed6:	80 93 60 00 	sts	0x0060, r24
    7eda:	10 92 60 00 	sts	0x0060, r1
    7ede:	0f be       	out	0x3f, r0	; 63
    7ee0:	91 e0       	ldi	r25, 0x01	; 1
    7ee2:	95 bf       	out	0x35, r25	; 53
    7ee4:	82 e0       	ldi	r24, 0x02	; 2
    7ee6:	85 bf       	out	0x35, r24	; 53
    7ee8:	80 91 d8 00 	lds	r24, 0x00D8
    7eec:	8f 7e       	andi	r24, 0xEF	; 239
    7eee:	80 93 d8 00 	sts	0x00D8, r24
    7ef2:	80 91 d7 00 	lds	r24, 0x00D7
    7ef6:	81 60       	ori	r24, 0x01	; 1
    7ef8:	80 93 d7 00 	sts	0x00D7, r24
    7efc:	84 e0       	ldi	r24, 0x04	; 4
    7efe:	82 bf       	out	0x32, r24	; 50
    7f00:	90 93 4a 01 	sts	0x014A, r25
    7f04:	80 91 d8 00 	lds	r24, 0x00D8
    7f08:	8e 7f       	andi	r24, 0xFE	; 254
    7f0a:	80 93 d8 00 	sts	0x00D8, r24
    7f0e:	10 92 e2 00 	sts	0x00E2, r1
    7f12:	10 92 da 00 	sts	0x00DA, r1
    7f16:	10 92 e1 00 	sts	0x00E1, r1
    7f1a:	80 91 d8 00 	lds	r24, 0x00D8
    7f1e:	8f 77       	andi	r24, 0x7F	; 127
    7f20:	80 93 d8 00 	sts	0x00D8, r24
    7f24:	80 91 d8 00 	lds	r24, 0x00D8
    7f28:	80 68       	ori	r24, 0x80	; 128
    7f2a:	80 93 d8 00 	sts	0x00D8, r24
    7f2e:	80 91 d8 00 	lds	r24, 0x00D8
    7f32:	8f 7d       	andi	r24, 0xDF	; 223
    7f34:	80 93 d8 00 	sts	0x00D8, r24
    7f38:	19 bc       	out	0x29, r1	; 41
    7f3a:	1e ba       	out	0x1e, r1	; 30
    7f3c:	10 92 53 01 	sts	0x0153, r1
    7f40:	80 91 e0 00 	lds	r24, 0x00E0
    7f44:	8b 7f       	andi	r24, 0xFB	; 251
    7f46:	80 93 e0 00 	sts	0x00E0, r24
    7f4a:	80 91 d8 00 	lds	r24, 0x00D8
    7f4e:	81 60       	ori	r24, 0x01	; 1
    7f50:	80 93 d8 00 	sts	0x00D8, r24
    7f54:	42 e0       	ldi	r20, 0x02	; 2
    7f56:	60 e0       	ldi	r22, 0x00	; 0
    7f58:	80 e0       	ldi	r24, 0x00	; 0
    7f5a:	f2 de       	rcall	.-540    	; 0x7d40 <Endpoint_ConfigureEndpoint_Prv>
    7f5c:	80 91 e1 00 	lds	r24, 0x00E1
    7f60:	8e 7f       	andi	r24, 0xFE	; 254
    7f62:	80 93 e1 00 	sts	0x00E1, r24
    7f66:	80 91 e2 00 	lds	r24, 0x00E2
    7f6a:	81 60       	ori	r24, 0x01	; 1
    7f6c:	80 93 e2 00 	sts	0x00E2, r24
    7f70:	80 91 e2 00 	lds	r24, 0x00E2
    7f74:	88 60       	ori	r24, 0x08	; 8
    7f76:	80 93 e2 00 	sts	0x00E2, r24
    7f7a:	80 91 e0 00 	lds	r24, 0x00E0
    7f7e:	8e 7f       	andi	r24, 0xFE	; 254
    7f80:	80 93 e0 00 	sts	0x00E0, r24
    7f84:	80 91 d8 00 	lds	r24, 0x00D8
    7f88:	80 61       	ori	r24, 0x10	; 16
    7f8a:	80 93 d8 00 	sts	0x00D8, r24
    7f8e:	78 94       	sei
    7f90:	03 e5       	ldi	r16, 0x53	; 83
    7f92:	11 e0       	ldi	r17, 0x01	; 1
    7f94:	73 e0       	ldi	r23, 0x03	; 3
    7f96:	c7 2e       	mov	r12, r23
    7f98:	e4 e0       	ldi	r30, 0x04	; 4
    7f9a:	be 2e       	mov	r11, r30
    7f9c:	aa 24       	eor	r10, r10
    7f9e:	a3 94       	inc	r10
    7fa0:	ee 24       	eor	r14, r14
    7fa2:	e3 94       	inc	r14
    7fa4:	f1 2c       	mov	r15, r1
    7fa6:	80 91 00 01 	lds	r24, 0x0100
    7faa:	88 23       	and	r24, r24
    7fac:	09 f4       	brne	.+2      	; 0x7fb0 <main+0xec>
    7fae:	d3 c1       	rjmp	.+934    	; 0x8356 <main+0x492>
    7fb0:	8e b3       	in	r24, 0x1e	; 30
    7fb2:	88 23       	and	r24, r24
    7fb4:	e9 f3       	breq	.-6      	; 0x7fb0 <main+0xec>
    7fb6:	80 91 e9 00 	lds	r24, 0x00E9
    7fba:	8f 70       	andi	r24, 0x0F	; 15
    7fbc:	20 91 ec 00 	lds	r18, 0x00EC
    7fc0:	92 2f       	mov	r25, r18
    7fc2:	91 70       	andi	r25, 0x01	; 1
    7fc4:	20 fd       	sbrc	r18, 0
    7fc6:	90 e8       	ldi	r25, 0x80	; 128
    7fc8:	d9 2e       	mov	r13, r25
    7fca:	d8 2a       	or	r13, r24
    7fcc:	10 92 e9 00 	sts	0x00E9, r1
    7fd0:	80 91 e8 00 	lds	r24, 0x00E8
    7fd4:	83 ff       	sbrs	r24, 3
    7fd6:	ba c1       	rjmp	.+884    	; 0x834c <main+0x488>
    7fd8:	eb e4       	ldi	r30, 0x4B	; 75
    7fda:	f1 e0       	ldi	r31, 0x01	; 1
    7fdc:	80 91 f1 00 	lds	r24, 0x00F1
    7fe0:	81 93       	st	Z+, r24
    7fe2:	0e 17       	cp	r16, r30
    7fe4:	1f 07       	cpc	r17, r31
    7fe6:	d1 f7       	brne	.-12     	; 0x7fdc <main+0x118>
    7fe8:	80 91 4b 01 	lds	r24, 0x014B
    7fec:	8f 77       	andi	r24, 0x7F	; 127
    7fee:	81 32       	cpi	r24, 0x21	; 33
    7ff0:	09 f0       	breq	.+2      	; 0x7ff4 <main+0x130>
    7ff2:	5e c0       	rjmp	.+188    	; 0x80b0 <main+0x1ec>
    7ff4:	80 91 4c 01 	lds	r24, 0x014C
    7ff8:	89 30       	cpi	r24, 0x09	; 9
    7ffa:	09 f0       	breq	.+2      	; 0x7ffe <main+0x13a>
    7ffc:	59 c0       	rjmp	.+178    	; 0x80b0 <main+0x1ec>
    7ffe:	80 91 e8 00 	lds	r24, 0x00E8
    8002:	87 7f       	andi	r24, 0xF7	; 247
    8004:	80 93 e8 00 	sts	0x00E8, r24
    8008:	80 91 e8 00 	lds	r24, 0x00E8
    800c:	82 ff       	sbrs	r24, 2
    800e:	fc cf       	rjmp	.-8      	; 0x8008 <main+0x144>
    8010:	30 91 f1 00 	lds	r19, 0x00F1
    8014:	20 91 f1 00 	lds	r18, 0x00F1
    8018:	83 2f       	mov	r24, r19
    801a:	92 2f       	mov	r25, r18
    801c:	8f 3f       	cpi	r24, 0xFF	; 255
    801e:	2f ef       	ldi	r18, 0xFF	; 255
    8020:	92 07       	cpc	r25, r18
    8022:	19 f4       	brne	.+6      	; 0x802a <main+0x166>
    8024:	10 92 00 01 	sts	0x0100, r1
    8028:	3d c0       	rjmp	.+122    	; 0x80a4 <main+0x1e0>
    802a:	fc 01       	movw	r30, r24
    802c:	c0 92 57 00 	sts	0x0057, r12
    8030:	e8 95       	spm
    8032:	07 b6       	in	r0, 0x37	; 55
    8034:	00 fc       	sbrc	r0, 0
    8036:	fd cf       	rjmp	.-6      	; 0x8032 <main+0x16e>
    8038:	40 e0       	ldi	r20, 0x00	; 0
    803a:	50 e0       	ldi	r21, 0x00	; 0
    803c:	60 91 f3 00 	lds	r22, 0x00F3
    8040:	20 91 f2 00 	lds	r18, 0x00F2
    8044:	30 e0       	ldi	r19, 0x00	; 0
    8046:	36 2b       	or	r19, r22
    8048:	23 2b       	or	r18, r19
    804a:	d9 f0       	breq	.+54     	; 0x8082 <main+0x1be>
    804c:	70 91 f1 00 	lds	r23, 0x00F1
    8050:	60 91 f1 00 	lds	r22, 0x00F1
    8054:	27 2f       	mov	r18, r23
    8056:	36 2f       	mov	r19, r22
    8058:	fa 01       	movw	r30, r20
    805a:	ee 0f       	add	r30, r30
    805c:	ff 1f       	adc	r31, r31
    805e:	e8 0f       	add	r30, r24
    8060:	f9 1f       	adc	r31, r25
    8062:	09 01       	movw	r0, r18
    8064:	a0 92 57 00 	sts	0x0057, r10
    8068:	e8 95       	spm
    806a:	11 24       	eor	r1, r1
    806c:	4f 5f       	subi	r20, 0xFF	; 255
    806e:	5f 4f       	sbci	r21, 0xFF	; 255
    8070:	40 34       	cpi	r20, 0x40	; 64
    8072:	51 05       	cpc	r21, r1
    8074:	19 f7       	brne	.-58     	; 0x803c <main+0x178>
    8076:	25 e0       	ldi	r18, 0x05	; 5
    8078:	fc 01       	movw	r30, r24
    807a:	20 93 57 00 	sts	0x0057, r18
    807e:	e8 95       	spm
    8080:	0a c0       	rjmp	.+20     	; 0x8096 <main+0x1d2>
    8082:	20 91 e8 00 	lds	r18, 0x00E8
    8086:	2b 77       	andi	r18, 0x7B	; 123
    8088:	20 93 e8 00 	sts	0x00E8, r18
    808c:	20 91 e8 00 	lds	r18, 0x00E8
    8090:	22 ff       	sbrs	r18, 2
    8092:	fc cf       	rjmp	.-8      	; 0x808c <main+0x1c8>
    8094:	db cf       	rjmp	.-74     	; 0x804c <main+0x188>
    8096:	07 b6       	in	r0, 0x37	; 55
    8098:	00 fc       	sbrc	r0, 0
    809a:	fd cf       	rjmp	.-6      	; 0x8096 <main+0x1d2>
    809c:	81 e1       	ldi	r24, 0x11	; 17
    809e:	80 93 57 00 	sts	0x0057, r24
    80a2:	e8 95       	spm
    80a4:	80 91 e8 00 	lds	r24, 0x00E8
    80a8:	8b 77       	andi	r24, 0x7B	; 123
    80aa:	80 93 e8 00 	sts	0x00E8, r24
    80ae:	2b de       	rcall	.-938    	; 0x7d06 <Endpoint_ClearStatusStage>
    80b0:	80 91 e8 00 	lds	r24, 0x00E8
    80b4:	83 ff       	sbrs	r24, 3
    80b6:	3c c1       	rjmp	.+632    	; 0x8330 <main+0x46c>
    80b8:	80 91 4b 01 	lds	r24, 0x014B
    80bc:	90 91 4c 01 	lds	r25, 0x014C
    80c0:	95 30       	cpi	r25, 0x05	; 5
    80c2:	09 f4       	brne	.+2      	; 0x80c6 <main+0x202>
    80c4:	64 c0       	rjmp	.+200    	; 0x818e <main+0x2ca>
    80c6:	30 f4       	brcc	.+12     	; 0x80d4 <main+0x210>
    80c8:	91 30       	cpi	r25, 0x01	; 1
    80ca:	59 f1       	breq	.+86     	; 0x8122 <main+0x25e>
    80cc:	68 f0       	brcs	.+26     	; 0x80e8 <main+0x224>
    80ce:	93 30       	cpi	r25, 0x03	; 3
    80d0:	41 f1       	breq	.+80     	; 0x8122 <main+0x25e>
    80d2:	2e c1       	rjmp	.+604    	; 0x8330 <main+0x46c>
    80d4:	98 30       	cpi	r25, 0x08	; 8
    80d6:	09 f4       	brne	.+2      	; 0x80da <main+0x216>
    80d8:	f5 c0       	rjmp	.+490    	; 0x82c4 <main+0x400>
    80da:	99 30       	cpi	r25, 0x09	; 9
    80dc:	09 f4       	brne	.+2      	; 0x80e0 <main+0x21c>
    80de:	04 c1       	rjmp	.+520    	; 0x82e8 <main+0x424>
    80e0:	96 30       	cpi	r25, 0x06	; 6
    80e2:	09 f0       	breq	.+2      	; 0x80e6 <main+0x222>
    80e4:	25 c1       	rjmp	.+586    	; 0x8330 <main+0x46c>
    80e6:	75 c0       	rjmp	.+234    	; 0x81d2 <main+0x30e>
    80e8:	80 38       	cpi	r24, 0x80	; 128
    80ea:	81 f0       	breq	.+32     	; 0x810c <main+0x248>
    80ec:	82 38       	cpi	r24, 0x82	; 130
    80ee:	09 f0       	breq	.+2      	; 0x80f2 <main+0x22e>
    80f0:	1f c1       	rjmp	.+574    	; 0x8330 <main+0x46c>
    80f2:	80 91 4f 01 	lds	r24, 0x014F
    80f6:	8f 70       	andi	r24, 0x0F	; 15
    80f8:	80 93 e9 00 	sts	0x00E9, r24
    80fc:	80 91 eb 00 	lds	r24, 0x00EB
    8100:	85 fb       	bst	r24, 5
    8102:	88 27       	eor	r24, r24
    8104:	80 f9       	bld	r24, 0
    8106:	10 92 e9 00 	sts	0x00E9, r1
    810a:	01 c0       	rjmp	.+2      	; 0x810e <main+0x24a>
    810c:	80 e0       	ldi	r24, 0x00	; 0
    810e:	90 91 e8 00 	lds	r25, 0x00E8
    8112:	97 7f       	andi	r25, 0xF7	; 247
    8114:	90 93 e8 00 	sts	0x00E8, r25
    8118:	80 93 f1 00 	sts	0x00F1, r24
    811c:	10 92 f1 00 	sts	0x00F1, r1
    8120:	dc c0       	rjmp	.+440    	; 0x82da <main+0x416>
    8122:	28 2f       	mov	r18, r24
    8124:	2d 7f       	andi	r18, 0xFD	; 253
    8126:	09 f0       	breq	.+2      	; 0x812a <main+0x266>
    8128:	03 c1       	rjmp	.+518    	; 0x8330 <main+0x46c>
    812a:	82 30       	cpi	r24, 0x02	; 2
    812c:	09 f0       	breq	.+2      	; 0x8130 <main+0x26c>
    812e:	00 c1       	rjmp	.+512    	; 0x8330 <main+0x46c>
    8130:	80 91 4d 01 	lds	r24, 0x014D
    8134:	81 11       	cpse	r24, r1
    8136:	25 c0       	rjmp	.+74     	; 0x8182 <main+0x2be>
    8138:	80 91 4f 01 	lds	r24, 0x014F
    813c:	8f 70       	andi	r24, 0x0F	; 15
    813e:	09 f4       	brne	.+2      	; 0x8142 <main+0x27e>
    8140:	f7 c0       	rjmp	.+494    	; 0x8330 <main+0x46c>
    8142:	80 93 e9 00 	sts	0x00E9, r24
    8146:	20 91 eb 00 	lds	r18, 0x00EB
    814a:	20 ff       	sbrs	r18, 0
    814c:	1a c0       	rjmp	.+52     	; 0x8182 <main+0x2be>
    814e:	93 30       	cpi	r25, 0x03	; 3
    8150:	21 f4       	brne	.+8      	; 0x815a <main+0x296>
    8152:	80 91 eb 00 	lds	r24, 0x00EB
    8156:	80 62       	ori	r24, 0x20	; 32
    8158:	12 c0       	rjmp	.+36     	; 0x817e <main+0x2ba>
    815a:	90 91 eb 00 	lds	r25, 0x00EB
    815e:	90 61       	ori	r25, 0x10	; 16
    8160:	90 93 eb 00 	sts	0x00EB, r25
    8164:	97 01       	movw	r18, r14
    8166:	02 c0       	rjmp	.+4      	; 0x816c <main+0x2a8>
    8168:	22 0f       	add	r18, r18
    816a:	33 1f       	adc	r19, r19
    816c:	8a 95       	dec	r24
    816e:	e2 f7       	brpl	.-8      	; 0x8168 <main+0x2a4>
    8170:	20 93 ea 00 	sts	0x00EA, r18
    8174:	10 92 ea 00 	sts	0x00EA, r1
    8178:	80 91 eb 00 	lds	r24, 0x00EB
    817c:	88 60       	ori	r24, 0x08	; 8
    817e:	80 93 eb 00 	sts	0x00EB, r24
    8182:	10 92 e9 00 	sts	0x00E9, r1
    8186:	80 91 e8 00 	lds	r24, 0x00E8
    818a:	87 7f       	andi	r24, 0xF7	; 247
    818c:	a9 c0       	rjmp	.+338    	; 0x82e0 <main+0x41c>
    818e:	81 11       	cpse	r24, r1
    8190:	cf c0       	rjmp	.+414    	; 0x8330 <main+0x46c>
    8192:	80 91 4d 01 	lds	r24, 0x014D
    8196:	8f 77       	andi	r24, 0x7F	; 127
    8198:	98 2e       	mov	r9, r24
    819a:	80 91 e3 00 	lds	r24, 0x00E3
    819e:	80 78       	andi	r24, 0x80	; 128
    81a0:	89 29       	or	r24, r9
    81a2:	80 93 e3 00 	sts	0x00E3, r24
    81a6:	80 91 e8 00 	lds	r24, 0x00E8
    81aa:	87 7f       	andi	r24, 0xF7	; 247
    81ac:	80 93 e8 00 	sts	0x00E8, r24
    81b0:	aa dd       	rcall	.-1196   	; 0x7d06 <Endpoint_ClearStatusStage>
    81b2:	80 91 e8 00 	lds	r24, 0x00E8
    81b6:	80 ff       	sbrs	r24, 0
    81b8:	fc cf       	rjmp	.-8      	; 0x81b2 <main+0x2ee>
    81ba:	80 91 e3 00 	lds	r24, 0x00E3
    81be:	80 68       	ori	r24, 0x80	; 128
    81c0:	80 93 e3 00 	sts	0x00E3, r24
    81c4:	91 10       	cpse	r9, r1
    81c6:	02 c0       	rjmp	.+4      	; 0x81cc <main+0x308>
    81c8:	82 e0       	ldi	r24, 0x02	; 2
    81ca:	01 c0       	rjmp	.+2      	; 0x81ce <main+0x30a>
    81cc:	83 e0       	ldi	r24, 0x03	; 3
    81ce:	8e bb       	out	0x1e, r24	; 30
    81d0:	af c0       	rjmp	.+350    	; 0x8330 <main+0x46c>
    81d2:	80 58       	subi	r24, 0x80	; 128
    81d4:	82 30       	cpi	r24, 0x02	; 2
    81d6:	08 f0       	brcs	.+2      	; 0x81da <main+0x316>
    81d8:	ab c0       	rjmp	.+342    	; 0x8330 <main+0x46c>
    81da:	30 91 4e 01 	lds	r19, 0x014E
    81de:	c3 2f       	mov	r28, r19
    81e0:	80 e0       	ldi	r24, 0x00	; 0
    81e2:	d8 2f       	mov	r29, r24
    81e4:	c1 30       	cpi	r28, 0x01	; 1
    81e6:	d1 05       	cpc	r29, r1
    81e8:	49 f0       	breq	.+18     	; 0x81fc <main+0x338>
    81ea:	22 97       	sbiw	r28, 0x02	; 2
    81ec:	61 f0       	breq	.+24     	; 0x8206 <main+0x342>
    81ee:	31 32       	cpi	r19, 0x21	; 33
    81f0:	79 f0       	breq	.+30     	; 0x8210 <main+0x34c>
    81f2:	35 e1       	ldi	r19, 0x15	; 21
    81f4:	20 e0       	ldi	r18, 0x00	; 0
    81f6:	e1 e0       	ldi	r30, 0x01	; 1
    81f8:	f1 e0       	ldi	r31, 0x01	; 1
    81fa:	0e c0       	rjmp	.+28     	; 0x8218 <main+0x354>
    81fc:	32 e1       	ldi	r19, 0x12	; 18
    81fe:	20 e0       	ldi	r18, 0x00	; 0
    8200:	e8 e3       	ldi	r30, 0x38	; 56
    8202:	f1 e0       	ldi	r31, 0x01	; 1
    8204:	09 c0       	rjmp	.+18     	; 0x8218 <main+0x354>
    8206:	32 e2       	ldi	r19, 0x22	; 34
    8208:	20 e0       	ldi	r18, 0x00	; 0
    820a:	e6 e1       	ldi	r30, 0x16	; 22
    820c:	f1 e0       	ldi	r31, 0x01	; 1
    820e:	04 c0       	rjmp	.+8      	; 0x8218 <main+0x354>
    8210:	39 e0       	ldi	r19, 0x09	; 9
    8212:	20 e0       	ldi	r18, 0x00	; 0
    8214:	e8 e2       	ldi	r30, 0x28	; 40
    8216:	f1 e0       	ldi	r31, 0x01	; 1
    8218:	80 91 e8 00 	lds	r24, 0x00E8
    821c:	87 7f       	andi	r24, 0xF7	; 247
    821e:	80 93 e8 00 	sts	0x00E8, r24
    8222:	40 91 51 01 	lds	r20, 0x0151
    8226:	50 91 52 01 	lds	r21, 0x0152
    822a:	83 2f       	mov	r24, r19
    822c:	92 2f       	mov	r25, r18
    822e:	48 17       	cp	r20, r24
    8230:	59 07       	cpc	r21, r25
    8232:	08 f4       	brcc	.+2      	; 0x8236 <main+0x372>
    8234:	ca 01       	movw	r24, r20
    8236:	40 e0       	ldi	r20, 0x00	; 0
    8238:	00 97       	sbiw	r24, 0x00	; 0
    823a:	71 f1       	breq	.+92     	; 0x8298 <main+0x3d4>
    823c:	2e b3       	in	r18, 0x1e	; 30
    823e:	22 23       	and	r18, r18
    8240:	d9 f1       	breq	.+118    	; 0x82b8 <main+0x3f4>
    8242:	25 30       	cpi	r18, 0x05	; 5
    8244:	c9 f1       	breq	.+114    	; 0x82b8 <main+0x3f4>
    8246:	20 91 e8 00 	lds	r18, 0x00E8
    824a:	23 fd       	sbrc	r18, 3
    824c:	35 c0       	rjmp	.+106    	; 0x82b8 <main+0x3f4>
    824e:	20 91 e8 00 	lds	r18, 0x00E8
    8252:	22 fd       	sbrc	r18, 2
    8254:	2d c0       	rjmp	.+90     	; 0x82b0 <main+0x3ec>
    8256:	20 91 e8 00 	lds	r18, 0x00E8
    825a:	20 ff       	sbrs	r18, 0
    825c:	ed cf       	rjmp	.-38     	; 0x8238 <main+0x374>
    825e:	40 91 f3 00 	lds	r20, 0x00F3
    8262:	20 91 f2 00 	lds	r18, 0x00F2
    8266:	30 e0       	ldi	r19, 0x00	; 0
    8268:	34 2b       	or	r19, r20
    826a:	00 97       	sbiw	r24, 0x00	; 0
    826c:	51 f0       	breq	.+20     	; 0x8282 <main+0x3be>
    826e:	28 30       	cpi	r18, 0x08	; 8
    8270:	31 05       	cpc	r19, r1
    8272:	38 f4       	brcc	.+14     	; 0x8282 <main+0x3be>
    8274:	41 91       	ld	r20, Z+
    8276:	40 93 f1 00 	sts	0x00F1, r20
    827a:	01 97       	sbiw	r24, 0x01	; 1
    827c:	2f 5f       	subi	r18, 0xFF	; 255
    827e:	3f 4f       	sbci	r19, 0xFF	; 255
    8280:	f4 cf       	rjmp	.-24     	; 0x826a <main+0x3a6>
    8282:	41 e0       	ldi	r20, 0x01	; 1
    8284:	28 30       	cpi	r18, 0x08	; 8
    8286:	31 05       	cpc	r19, r1
    8288:	09 f0       	breq	.+2      	; 0x828c <main+0x3c8>
    828a:	40 e0       	ldi	r20, 0x00	; 0
    828c:	20 91 e8 00 	lds	r18, 0x00E8
    8290:	2e 77       	andi	r18, 0x7E	; 126
    8292:	20 93 e8 00 	sts	0x00E8, r18
    8296:	d0 cf       	rjmp	.-96     	; 0x8238 <main+0x374>
    8298:	41 11       	cpse	r20, r1
    829a:	d0 cf       	rjmp	.-96     	; 0x823c <main+0x378>
    829c:	09 c0       	rjmp	.+18     	; 0x82b0 <main+0x3ec>
    829e:	8e b3       	in	r24, 0x1e	; 30
    82a0:	88 23       	and	r24, r24
    82a2:	51 f0       	breq	.+20     	; 0x82b8 <main+0x3f4>
    82a4:	85 30       	cpi	r24, 0x05	; 5
    82a6:	41 f0       	breq	.+16     	; 0x82b8 <main+0x3f4>
    82a8:	80 91 e8 00 	lds	r24, 0x00E8
    82ac:	83 fd       	sbrc	r24, 3
    82ae:	04 c0       	rjmp	.+8      	; 0x82b8 <main+0x3f4>
    82b0:	80 91 e8 00 	lds	r24, 0x00E8
    82b4:	82 ff       	sbrs	r24, 2
    82b6:	f3 cf       	rjmp	.-26     	; 0x829e <main+0x3da>
    82b8:	80 91 e8 00 	lds	r24, 0x00E8
    82bc:	8b 77       	andi	r24, 0x7B	; 123
    82be:	80 93 e8 00 	sts	0x00E8, r24
    82c2:	36 c0       	rjmp	.+108    	; 0x8330 <main+0x46c>
    82c4:	80 38       	cpi	r24, 0x80	; 128
    82c6:	a1 f5       	brne	.+104    	; 0x8330 <main+0x46c>
    82c8:	80 91 e8 00 	lds	r24, 0x00E8
    82cc:	87 7f       	andi	r24, 0xF7	; 247
    82ce:	80 93 e8 00 	sts	0x00E8, r24
    82d2:	80 91 53 01 	lds	r24, 0x0153
    82d6:	80 93 f1 00 	sts	0x00F1, r24
    82da:	80 91 e8 00 	lds	r24, 0x00E8
    82de:	8e 77       	andi	r24, 0x7E	; 126
    82e0:	80 93 e8 00 	sts	0x00E8, r24
    82e4:	10 dd       	rcall	.-1504   	; 0x7d06 <Endpoint_ClearStatusStage>
    82e6:	24 c0       	rjmp	.+72     	; 0x8330 <main+0x46c>
    82e8:	81 11       	cpse	r24, r1
    82ea:	22 c0       	rjmp	.+68     	; 0x8330 <main+0x46c>
    82ec:	80 91 4d 01 	lds	r24, 0x014D
    82f0:	90 91 4e 01 	lds	r25, 0x014E
    82f4:	99 27       	eor	r25, r25
    82f6:	02 97       	sbiw	r24, 0x02	; 2
    82f8:	dc f4       	brge	.+54     	; 0x8330 <main+0x46c>
    82fa:	80 91 e8 00 	lds	r24, 0x00E8
    82fe:	87 7f       	andi	r24, 0xF7	; 247
    8300:	80 93 e8 00 	sts	0x00E8, r24
    8304:	90 90 4d 01 	lds	r9, 0x014D
    8308:	90 92 53 01 	sts	0x0153, r9
    830c:	fc dc       	rcall	.-1544   	; 0x7d06 <Endpoint_ClearStatusStage>
    830e:	99 20       	and	r9, r9
    8310:	31 f0       	breq	.+12     	; 0x831e <main+0x45a>
    8312:	be ba       	out	0x1e, r11	; 30
    8314:	42 e3       	ldi	r20, 0x32	; 50
    8316:	61 ec       	ldi	r22, 0xC1	; 193
    8318:	81 e0       	ldi	r24, 0x01	; 1
    831a:	12 dd       	rcall	.-1500   	; 0x7d40 <Endpoint_ConfigureEndpoint_Prv>
    831c:	09 c0       	rjmp	.+18     	; 0x8330 <main+0x46c>
    831e:	80 91 e3 00 	lds	r24, 0x00E3
    8322:	87 fd       	sbrc	r24, 7
    8324:	02 c0       	rjmp	.+4      	; 0x832a <main+0x466>
    8326:	81 e0       	ldi	r24, 0x01	; 1
    8328:	01 c0       	rjmp	.+2      	; 0x832c <main+0x468>
    832a:	84 e0       	ldi	r24, 0x04	; 4
    832c:	8e bb       	out	0x1e, r24	; 30
    832e:	f2 cf       	rjmp	.-28     	; 0x8314 <main+0x450>
    8330:	80 91 e8 00 	lds	r24, 0x00E8
    8334:	83 ff       	sbrs	r24, 3
    8336:	0a c0       	rjmp	.+20     	; 0x834c <main+0x488>
    8338:	80 91 e8 00 	lds	r24, 0x00E8
    833c:	87 7f       	andi	r24, 0xF7	; 247
    833e:	80 93 e8 00 	sts	0x00E8, r24
    8342:	80 91 eb 00 	lds	r24, 0x00EB
    8346:	80 62       	ori	r24, 0x20	; 32
    8348:	80 93 eb 00 	sts	0x00EB, r24
    834c:	8d 2d       	mov	r24, r13
    834e:	8f 70       	andi	r24, 0x0F	; 15
    8350:	80 93 e9 00 	sts	0x00E9, r24
    8354:	28 ce       	rjmp	.-944    	; 0x7fa6 <main+0xe2>
    8356:	80 91 e0 00 	lds	r24, 0x00E0
    835a:	81 60       	ori	r24, 0x01	; 1
    835c:	80 93 e0 00 	sts	0x00E0, r24
    8360:	82 e4       	ldi	r24, 0x42	; 66
    8362:	9c ed       	ldi	r25, 0xDC	; 220
    8364:	90 93 55 01 	sts	0x0155, r25
    8368:	80 93 54 01 	sts	0x0154, r24
    836c:	9c e0       	ldi	r25, 0x0C	; 12
    836e:	88 e1       	ldi	r24, 0x18	; 24
    8370:	0f b6       	in	r0, 0x3f	; 63
    8372:	f8 94       	cli
    8374:	a8 95       	wdr
    8376:	80 93 60 00 	sts	0x0060, r24
    837a:	0f be       	out	0x3f, r0	; 63
    837c:	90 93 60 00 	sts	0x0060, r25
    8380:	ff cf       	rjmp	.-2      	; 0x8380 <main+0x4bc>

00008382 <_exit>:
    8382:	f8 94       	cli

00008384 <__stop_program>:
    8384:	ff cf       	rjmp	.-2      	; 0x8384 <__stop_program>
